target datalayout = "e-m:e-p270:32:32-p271:32:32-p272:64:64-i64:64-i128:128-f80:128-n8:16:32:64-S128"
target triple = "x86_64-unknown-linux-gnu"

%"class.OpenColorIO_v2_4dev::ArrayT" = type { %"class.OpenColorIO_v2_4dev::ArrayBase", i64, i64, %"class.std::vector" }
%"class.OpenColorIO_v2_4dev::ArrayBase" = type { ptr }
%"class.std::vector" = type { %"struct.std::_Vector_base" }
%"struct.std::_Vector_base" = type { %"struct.std::_Vector_base<float, std::allocator<float>>::_Vector_impl" }
%"struct.std::_Vector_base<float, std::allocator<float>>::_Vector_impl" = type { %"struct.std::_Vector_base<float, std::allocator<float>>::_Vector_impl_data" }
%"struct.std::_Vector_base<float, std::allocator<float>>::_Vector_impl_data" = type { ptr, ptr, ptr }
%"class.std::__cxx11::basic_string" = type { %"struct.std::__cxx11::basic_string<char>::_Alloc_hider", i64, %union.anon.3 }
%"struct.std::__cxx11::basic_string<char>::_Alloc_hider" = type { ptr }
%union.anon.3 = type { i64, [8 x i8] }
%"class.OpenColorIO_v2_4dev::Lut1DOpData" = type <{ %"class.OpenColorIO_v2_4dev::OpData", i32, [4 x i8], %"class.OpenColorIO_v2_4dev::Lut1DOpData::Lut3by1DArray", i32, i32, i32, [4 x i8], [3 x %"struct.OpenColorIO_v2_4dev::Lut1DOpData::ComponentProperties"], i32, [4 x i8] }>
%"class.OpenColorIO_v2_4dev::OpData" = type { ptr, %"class.std::mutex", %"class.OpenColorIO_v2_4dev::FormatMetadataImpl" }
%"class.std::mutex" = type { %"class.std::__mutex_base" }
%"class.std::__mutex_base" = type { %union.pthread_mutex_t }
%union.pthread_mutex_t = type { %struct.__pthread_mutex_s }
%struct.__pthread_mutex_s = type { i32, i32, i32, i32, i32, i16, i16, %struct.__pthread_internal_list }
%struct.__pthread_internal_list = type { ptr, ptr }
%"class.OpenColorIO_v2_4dev::FormatMetadataImpl" = type { %"class.OpenColorIO_v2_4dev::FormatMetadata", %"class.std::__cxx11::basic_string", %"class.std::__cxx11::basic_string", %"class.std::vector.4", %"class.std::vector.9" }
%"class.OpenColorIO_v2_4dev::FormatMetadata" = type { ptr }
%"class.std::vector.4" = type { %"struct.std::_Vector_base.5" }
%"struct.std::_Vector_base.5" = type { %"struct.std::_Vector_base<std::pair<std::__cxx11::basic_string<char>, std::__cxx11::basic_string<char>>, std::allocator<std::pair<std::__cxx11::basic_string<char>, std::__cxx11::basic_string<char>>>>::_Vector_impl" }
%"struct.std::_Vector_base<std::pair<std::__cxx11::basic_string<char>, std::__cxx11::basic_string<char>>, std::allocator<std::pair<std::__cxx11::basic_string<char>, std::__cxx11::basic_string<char>>>>::_Vector_impl" = type { %"struct.std::_Vector_base<std::pair<std::__cxx11::basic_string<char>, std::__cxx11::basic_string<char>>, std::allocator<std::pair<std::__cxx11::basic_string<char>, std::__cxx11::basic_string<char>>>>::_Vector_impl_data" }
%"struct.std::_Vector_base<std::pair<std::__cxx11::basic_string<char>, std::__cxx11::basic_string<char>>, std::allocator<std::pair<std::__cxx11::basic_string<char>, std::__cxx11::basic_string<char>>>>::_Vector_impl_data" = type { ptr, ptr, ptr }
%"class.std::vector.9" = type { %"struct.std::_Vector_base.10" }
%"struct.std::_Vector_base.10" = type { %"struct.std::_Vector_base<OpenColorIO_v2_4dev::FormatMetadataImpl, std::allocator<OpenColorIO_v2_4dev::FormatMetadataImpl>>::_Vector_impl" }
%"struct.std::_Vector_base<OpenColorIO_v2_4dev::FormatMetadataImpl, std::allocator<OpenColorIO_v2_4dev::FormatMetadataImpl>>::_Vector_impl" = type { %"struct.std::_Vector_base<OpenColorIO_v2_4dev::FormatMetadataImpl, std::allocator<OpenColorIO_v2_4dev::FormatMetadataImpl>>::_Vector_impl_data" }
%"struct.std::_Vector_base<OpenColorIO_v2_4dev::FormatMetadataImpl, std::allocator<OpenColorIO_v2_4dev::FormatMetadataImpl>>::_Vector_impl_data" = type { ptr, ptr, ptr }
%"class.OpenColorIO_v2_4dev::Lut1DOpData::Lut3by1DArray" = type { %"class.OpenColorIO_v2_4dev::ArrayT" }
%"struct.OpenColorIO_v2_4dev::Lut1DOpData::ComponentProperties" = type { i8, i64, i64, i64, i64 }

@_ZTVN19OpenColorIO_v2_4dev6OpDataE = external unnamed_addr constant { [13 x ptr] }, align 8
@_ZN19OpenColorIO_v2_4dev11Lut1DOpData13Lut3by1DArrayD1Ev = hidden unnamed_addr alias void (ptr), ptr @_ZN19OpenColorIO_v2_4dev11Lut1DOpData13Lut3by1DArrayD2Ev

; Function Attrs: mustprogress nounwind uwtable
define linkonce_odr hidden void @_ZN19OpenColorIO_v2_4dev6OpDataD2Ev(ptr noundef nonnull align 8 dereferenceable(168) %this) unnamed_addr #5 comdat align 2 {
entry:
  %this.addr = alloca ptr, align 8
  store ptr %this, ptr %this.addr, align 8
  %this1 = load ptr, ptr %this.addr, align 8
  store ptr getelementptr inbounds ({ [13 x ptr] }, ptr @_ZTVN19OpenColorIO_v2_4dev6OpDataE, i32 0, i32 0, i32 2), ptr %this1, align 8
  %m_metadata = getelementptr inbounds %"class.OpenColorIO_v2_4dev::OpData", ptr %this1, i32 0, i32 2
  call void @_ZN19OpenColorIO_v2_4dev18FormatMetadataImplD1Ev(ptr noundef nonnull align 8 dereferenceable(120) %m_metadata) #3
  ret void
}

; Function Attrs: mustprogress nounwind uwtable
define hidden void @_ZN19OpenColorIO_v2_4dev11Lut1DOpDataD2Ev(ptr noundef nonnull align 8 dereferenceable(364) %this) unnamed_addr #5 align 2 {
entry:
  %this.addr = alloca ptr, align 8
  store ptr %this, ptr %this.addr, align 8
  %this1 = load ptr, ptr %this.addr, align 8
  store ptr getelementptr inbounds ({ [14 x ptr] }, ptr @_ZTVN19OpenColorIO_v2_4dev11Lut1DOpDataE, i32 0, i32 0, i32 2), ptr %this1, align 8
  %m_array = getelementptr inbounds %"class.OpenColorIO_v2_4dev::Lut1DOpData", ptr %this1, i32 0, i32 3
  call void @_ZN19OpenColorIO_v2_4dev11Lut1DOpData13Lut3by1DArrayD1Ev(ptr noundef nonnull align 8 dereferenceable(48) %m_array) #3
  call void @_ZN19OpenColorIO_v2_4dev6OpDataD2Ev(ptr noundef nonnull align 8 dereferenceable(168) %this1) #3
  ret void
}